target datalayout = "e-m:e-p270:32:32-p271:32:32-p272:64:64-i64:64-i128:128-f80:128-n8:16:32:64-S128"
target triple = "x86_64-pc-linux-gnu"

%"class.std::__cxx11::basic_string" = type { %"struct.std::__cxx11::basic_string<char>::_Alloc_hider", i64, %union.anon }
%"struct.std::__cxx11::basic_string<char>::_Alloc_hider" = type { ptr }
%union.anon = type { i64, [8 x i8] }
%class.anon.401 = type { ptr, ptr }

@.str.84 = private unnamed_addr constant [10 x i8] c"#version \00", align 1

; Function Attrs: mustprogress nounwind uwtable
define internal void @_ZZN12_GLOBAL__N_115DoPreprocessingclERN7glslang17TParseContextBaseERNS1_10TPpContextERNS1_13TInputScannerEbRNS1_12TSymbolTableERNS1_13TIntermediateE20EShOptimizationLevel11EShMessagesENKUliiPKcE_clEiiSF_(ptr noundef nonnull align 8 dereferenceable(16) %0, i32 noundef %1, i32 noundef %2, ptr noundef %3) #4 align 2 {
  %5 = alloca ptr, align 8
  %6 = alloca i32, align 4
  %7 = alloca i32, align 4
  %8 = alloca ptr, align 8
  %9 = alloca %"class.std::__cxx11::basic_string", align 8
  store ptr %0, ptr %5, align 8
  store i32 %1, ptr %6, align 4
  store i32 %2, ptr %7, align 4
  store ptr %3, ptr %8, align 8
  %10 = load ptr, ptr %5, align 8
  %11 = getelementptr inbounds %class.anon.401, ptr %10, i32 0, i32 0
  %12 = load ptr, ptr %11, align 8
  %13 = load i32, ptr %6, align 4
  %14 = call noundef zeroext i1 @_ZN12_GLOBAL__N_122SourceLineSynchronizer10syncToLineEi(ptr noundef nonnull align 8 dereferenceable(48) %12, i32 noundef %13)
  %15 = getelementptr inbounds %class.anon.401, ptr %10, i32 0, i32 1
  %16 = load ptr, ptr %15, align 8
  %17 = call noundef nonnull align 8 dereferenceable(32) ptr @_ZNSt7__cxx1112basic_stringIcSt11char_traitsIcESaIcEEpLEPKc(ptr noundef nonnull align 8 dereferenceable(32) %16, ptr noundef @.str.84)
  %18 = load i32, ptr %7, align 4
  call void @_ZNSt7__cxx119to_stringEi(ptr dead_on_unwind writable sret(%"class.std::__cxx11::basic_string") align 8 %9, i32 noundef %18) #3
  %19 = getelementptr inbounds %class.anon.401, ptr %10, i32 0, i32 1
  %20 = load ptr, ptr %19, align 8
  %21 = call noundef nonnull align 8 dereferenceable(32) ptr @_ZNSt7__cxx1112basic_stringIcSt11char_traitsIcESaIcEEpLERKS4_(ptr noundef nonnull align 8 dereferenceable(32) %20, ptr noundef nonnull align 8 dereferenceable(32) %9)
  call void @_ZNSt7__cxx1112basic_stringIcSt11char_traitsIcESaIcEED1Ev(ptr noundef nonnull align 8 dereferenceable(32) %9) #3
  %22 = load ptr, ptr %8, align 8
  %23 = icmp ne ptr %22, null
  br i1 %23, label %24, label %32

24:                                               ; preds = %4
  %25 = getelementptr inbounds %class.anon.401, ptr %10, i32 0, i32 1
  %26 = load ptr, ptr %25, align 8
  %27 = call noundef nonnull align 8 dereferenceable(32) ptr @_ZNSt7__cxx1112basic_stringIcSt11char_traitsIcESaIcEEpLEc(ptr noundef nonnull align 8 dereferenceable(32) %26, i8 noundef signext 32)
  %28 = load ptr, ptr %8, align 8
  %29 = getelementptr inbounds %class.anon.401, ptr %10, i32 0, i32 1
  %30 = load ptr, ptr %29, align 8
  %31 = call noundef nonnull align 8 dereferenceable(32) ptr @_ZNSt7__cxx1112basic_stringIcSt11char_traitsIcESaIcEEpLEPKc(ptr noundef nonnull align 8 dereferenceable(32) %30, ptr noundef %28)
  br label %32

32:                                               ; preds = %24, %4
  ret void
}

; Function Attrs: mustprogress nounwind uwtable
define linkonce_odr noundef ptr @_ZNKSt9_Any_data9_M_accessEv(ptr noundef nonnull align 8 dereferenceable(16) %0) #4 comdat align 2 {
  %2 = alloca ptr, align 8
  store ptr %0, ptr %2, align 8
  %3 = load ptr, ptr %2, align 8
  %4 = getelementptr inbounds [16 x i8], ptr %3, i64 0, i64 0
  ret ptr %4
}

; Function Attrs: mustprogress nounwind uwtable
define internal void @_ZSt13__invoke_implIvRZN12_GLOBAL__N_115DoPreprocessingclERN7glslang17TParseContextBaseERNS2_10TPpContextERNS2_13TInputScannerEbRNS2_12TSymbolTableERNS2_13TIntermediateE20EShOptimizationLevel11EShMessagesEUliiPKcE_JiiSG_EET_St14__invoke_otherOT0_DpOT1_(ptr noundef nonnull align 8 dereferenceable(16) %0, ptr noundef nonnull align 4 dereferenceable(4) %1, ptr noundef nonnull align 4 dereferenceable(4) %2, ptr noundef nonnull align 8 dereferenceable(8) %3) #4 {
  %5 = alloca ptr, align 8
  %6 = alloca ptr, align 8
  %7 = alloca ptr, align 8
  %8 = alloca ptr, align 8
  store ptr %0, ptr %5, align 8
  store ptr %1, ptr %6, align 8
  store ptr %2, ptr %7, align 8
  store ptr %3, ptr %8, align 8
  %9 = load ptr, ptr %5, align 8
  %10 = load ptr, ptr %6, align 8
  %11 = load i32, ptr %10, align 4
  %12 = load ptr, ptr %7, align 8
  %13 = load i32, ptr %12, align 4
  %14 = load ptr, ptr %8, align 8
  %15 = load ptr, ptr %14, align 8
  call void @_ZZN12_GLOBAL__N_115DoPreprocessingclERN7glslang17TParseContextBaseERNS1_10TPpContextERNS1_13TInputScannerEbRNS1_12TSymbolTableERNS1_13TIntermediateE20EShOptimizationLevel11EShMessagesENKUliiPKcE_clEiiSF_(ptr noundef nonnull align 8 dereferenceable(16) %9, i32 noundef %11, i32 noundef %13, ptr noundef %15)
  ret void
}

; Function Attrs: mustprogress nounwind uwtable
define internal noundef nonnull align 8 dereferenceable(16) ptr @_ZNKSt9_Any_data9_M_accessIZN12_GLOBAL__N_115DoPreprocessingclERN7glslang17TParseContextBaseERNS3_10TPpContextERNS3_13TInputScannerEbRNS3_12TSymbolTableERNS3_13TIntermediateE20EShOptimizationLevel11EShMessagesEUliiPKcE_EERKT_v(ptr noundef nonnull align 8 dereferenceable(16) %0) #4 align 2 {
  %2 = alloca ptr, align 8
  store ptr %0, ptr %2, align 8
  %3 = load ptr, ptr %2, align 8
  %4 = call noundef ptr @_ZNKSt9_Any_data9_M_accessEv(ptr noundef nonnull align 8 dereferenceable(16) %3) #3
  ret ptr %4
}

; Function Attrs: mustprogress nounwind uwtable
define internal void @_ZSt10__invoke_rIvRZN12_GLOBAL__N_115DoPreprocessingclERN7glslang17TParseContextBaseERNS2_10TPpContextERNS2_13TInputScannerEbRNS2_12TSymbolTableERNS2_13TIntermediateE20EShOptimizationLevel11EShMessagesEUliiPKcE_JiiSG_EENSt9enable_ifIX16is_invocable_r_vIT_T0_DpT1_EESK_E4typeEOSL_DpOSM_(ptr noundef nonnull align 8 dereferenceable(16) %0, ptr noundef nonnull align 4 dereferenceable(4) %1, ptr noundef nonnull align 4 dereferenceable(4) %2, ptr noundef nonnull align 8 dereferenceable(8) %3) #4 {
  %5 = alloca ptr, align 8
  %6 = alloca ptr, align 8
  %7 = alloca ptr, align 8
  %8 = alloca ptr, align 8
  store ptr %0, ptr %5, align 8
  store ptr %1, ptr %6, align 8
  store ptr %2, ptr %7, align 8
  store ptr %3, ptr %8, align 8
  %9 = load ptr, ptr %5, align 8
  %10 = load ptr, ptr %6, align 8
  %11 = load ptr, ptr %7, align 8
  %12 = load ptr, ptr %8, align 8
  call void @_ZSt13__invoke_implIvRZN12_GLOBAL__N_115DoPreprocessingclERN7glslang17TParseContextBaseERNS2_10TPpContextERNS2_13TInputScannerEbRNS2_12TSymbolTableERNS2_13TIntermediateE20EShOptimizationLevel11EShMessagesEUliiPKcE_JiiSG_EET_St14__invoke_otherOT0_DpOT1_(ptr noundef nonnull align 8 dereferenceable(16) %9, ptr noundef nonnull align 4 dereferenceable(4) %10, ptr noundef nonnull align 4 dereferenceable(4) %11, ptr noundef nonnull align 8 dereferenceable(8) %12)
  ret void
}

; Function Attrs: mustprogress nounwind uwtable
define internal noundef ptr @_ZNSt14_Function_base13_Base_managerIZN12_GLOBAL__N_115DoPreprocessingclERN7glslang17TParseContextBaseERNS3_10TPpContextERNS3_13TInputScannerEbRNS3_12TSymbolTableERNS3_13TIntermediateE20EShOptimizationLevel11EShMessagesEUliiPKcE_E14_M_get_pointerERKSt9_Any_data(ptr noundef nonnull align 8 dereferenceable(16) %0) #4 align 2 {
  %2 = alloca ptr, align 8
  %3 = alloca ptr, align 8
  store ptr %0, ptr %2, align 8
  %4 = load ptr, ptr %2, align 8
  %5 = call noundef nonnull align 8 dereferenceable(16) ptr @_ZNKSt9_Any_data9_M_accessIZN12_GLOBAL__N_115DoPreprocessingclERN7glslang17TParseContextBaseERNS3_10TPpContextERNS3_13TInputScannerEbRNS3_12TSymbolTableERNS3_13TIntermediateE20EShOptimizationLevel11EShMessagesEUliiPKcE_EERKT_v(ptr noundef nonnull align 8 dereferenceable(16) %4) #3
  store ptr %5, ptr %3, align 8
  %6 = load ptr, ptr %3, align 8
  ret ptr %6
}

; Function Attrs: mustprogress nounwind uwtable
define internal void @_ZNSt17_Function_handlerIFviiPKcEZN12_GLOBAL__N_115DoPreprocessingclERN7glslang17TParseContextBaseERNS5_10TPpContextERNS5_13TInputScannerEbRNS5_12TSymbolTableERNS5_13TIntermediateE20EShOptimizationLevel11EShMessagesEUliiS1_E_E9_M_invokeERKSt9_Any_dataOiSN_OS1_(ptr noundef nonnull align 8 dereferenceable(16) %0, ptr noundef nonnull align 4 dereferenceable(4) %1, ptr noundef nonnull align 4 dereferenceable(4) %2, ptr noundef nonnull align 8 dereferenceable(8) %3) #4 align 2 {
  %5 = alloca ptr, align 8
  %6 = alloca ptr, align 8
  %7 = alloca ptr, align 8
  %8 = alloca ptr, align 8
  store ptr %0, ptr %5, align 8
  store ptr %1, ptr %6, align 8
  store ptr %2, ptr %7, align 8
  store ptr %3, ptr %8, align 8
  %9 = load ptr, ptr %5, align 8
  %10 = call noundef ptr @_ZNSt14_Function_base13_Base_managerIZN12_GLOBAL__N_115DoPreprocessingclERN7glslang17TParseContextBaseERNS3_10TPpContextERNS3_13TInputScannerEbRNS3_12TSymbolTableERNS3_13TIntermediateE20EShOptimizationLevel11EShMessagesEUliiPKcE_E14_M_get_pointerERKSt9_Any_data(ptr noundef nonnull align 8 dereferenceable(16) %9) #3
  %11 = load ptr, ptr %6, align 8
  %12 = load ptr, ptr %7, align 8
  %13 = load ptr, ptr %8, align 8
  call void @_ZSt10__invoke_rIvRZN12_GLOBAL__N_115DoPreprocessingclERN7glslang17TParseContextBaseERNS2_10TPpContextERNS2_13TInputScannerEbRNS2_12TSymbolTableERNS2_13TIntermediateE20EShOptimizationLevel11EShMessagesEUliiPKcE_JiiSG_EENSt9enable_ifIX16is_invocable_r_vIT_T0_DpT1_EESK_E4typeEOSL_DpOSM_(ptr noundef nonnull align 8 dereferenceable(16) %10, ptr noundef nonnull align 4 dereferenceable(4) %11, ptr noundef nonnull align 4 dereferenceable(4) %12, ptr noundef nonnull align 8 dereferenceable(8) %13)
  ret void
}