; Function Attrs: mustprogress nounwind uwtable
define internal void @_ZNSt17_Function_handlerIFviiPKcEZN12_GLOBAL__N_115DoPreprocessingclERN7glslang17TParseContextBaseERNS5_10TPpContextERNS5_13TInputScannerEbRNS5_12TSymbolTableERNS5_13TIntermediateE20EShOptimizationLevel11EShMessagesEUliiS1_E_E9_M_invokeERKSt9_Any_dataOiSN_OS1_(ptr noundef nonnull readonly align 8 captures(none) dereferenceable(16) %0, ptr noundef nonnull readonly align 4 captures(none) dereferenceable(4) %1, ptr noundef nonnull readonly align 4 captures(none) dereferenceable(4) %2, ptr noundef nonnull readonly align 8 captures(none) dereferenceable(8) %3) #3 align 2 {
  %5 = alloca %"class.std::__cxx11::basic_string", align 8
  %.val = load i32, ptr %1, align 4
  %.val4 = load i32, ptr %2, align 4
  %.val5 = load ptr, ptr %3, align 8
  call void @llvm.lifetime.start.p0(i64 32, ptr nonnull %5)
  %6 = load ptr, ptr %0, align 8
  %7 = tail call fastcc noundef zeroext i1 @_ZN12_GLOBAL__N_122SourceLineSynchronizer10syncToLineEi(ptr noundef nonnull align 8 dereferenceable(48) %6, i32 noundef %.val)
  %8 = getelementptr inbounds nuw i8, ptr %0, i64 8
  %9 = load ptr, ptr %8, align 8
  %10 = tail call noundef nonnull align 8 dereferenceable(32) ptr @_ZNSt7__cxx1112basic_stringIcSt11char_traitsIcESaIcEEpLEPKc(ptr noundef nonnull align 8 dereferenceable(32) %9, ptr noundef nonnull @.str.84) #24
  call void @_ZNSt7__cxx119to_stringEi(ptr dead_on_unwind nonnull writable sret(%"class.std::__cxx11::basic_string") align 8 %5, i32 noundef %.val4) #24
  %11 = load ptr, ptr %8, align 8
  %12 = call noundef nonnull align 8 dereferenceable(32) ptr @_ZNSt7__cxx1112basic_stringIcSt11char_traitsIcESaIcEEpLERKS4_(ptr noundef nonnull align 8 dereferenceable(32) %11, ptr noundef nonnull align 8 dereferenceable(32) %5) #24
  call void @_ZNSt7__cxx1112basic_stringIcSt11char_traitsIcESaIcEED1Ev(ptr noundef nonnull align 8 dereferenceable(32) %5) #24
  %.not.i.i.i = icmp eq ptr %.val5, null
  br i1 %.not.i.i.i, label %_ZSt10__invoke_rIvRZN12_GLOBAL__N_115DoPreprocessingclERN7glslang17TParseContextBaseERNS2_10TPpContextERNS2_13TInputScannerEbRNS2_12TSymbolTableERNS2_13TIntermediateE20EShOptimizationLevel11EShMessagesEUliiPKcE_JiiSG_EENSt9enable_ifIX16is_invocable_r_vIT_T0_DpT1_EESK_E4typeEOSL_DpOSM_.exit, label %13

13:                                               ; preds = %4
  %14 = load ptr, ptr %8, align 8
  %15 = call noundef nonnull align 8 dereferenceable(32) ptr @_ZNSt7__cxx1112basic_stringIcSt11char_traitsIcESaIcEEpLEc(ptr noundef nonnull align 8 dereferenceable(32) %14, i8 noundef signext 32) #24
  %16 = load ptr, ptr %8, align 8
  %17 = call noundef nonnull align 8 dereferenceable(32) ptr @_ZNSt7__cxx1112basic_stringIcSt11char_traitsIcESaIcEEpLEPKc(ptr noundef nonnull align 8 dereferenceable(32) %16, ptr noundef nonnull %.val5) #24
  br label %_ZSt10__invoke_rIvRZN12_GLOBAL__N_115DoPreprocessingclERN7glslang17TParseContextBaseERNS2_10TPpContextERNS2_13TInputScannerEbRNS2_12TSymbolTableERNS2_13TIntermediateE20EShOptimizationLevel11EShMessagesEUliiPKcE_JiiSG_EENSt9enable_ifIX16is_invocable_r_vIT_T0_DpT1_EESK_E4typeEOSL_DpOSM_.exit

_ZSt10__invoke_rIvRZN12_GLOBAL__N_115DoPreprocessingclERN7glslang17TParseContextBaseERNS2_10TPpContextERNS2_13TInputScannerEbRNS2_12TSymbolTableERNS2_13TIntermediateE20EShOptimizationLevel11EShMessagesEUliiPKcE_JiiSG_EENSt9enable_ifIX16is_invocable_r_vIT_T0_DpT1_EESK_E4typeEOSL_DpOSM_.exit: ; preds = %4, %13
  call void @llvm.lifetime.end.p0(i64 32, ptr nonnull %5)
  ret void
}